; Function Attrs: mustprogress nounwind uwtable
define dso_local void @_ZN4llvm8codeview19discoverTypeIndicesERKNS0_8CVRecordINS0_12TypeLeafKindEEERNS_15SmallVectorImplINS0_11TiReferenceEEE(ptr nocapture noundef nonnull readonly align 8 dereferenceable(16) %0, ptr noundef nonnull align 8 dereferenceable(16) %1) local_unnamed_addr #0 {
  %3 = getelementptr inbounds nuw i8, ptr %0, i64 8
  %4 = load i64, ptr %3, align 8
  %5 = load ptr, ptr %0, align 8
  %6 = icmp ult i64 %4, 4
  br i1 %6, label %_ZNK4llvm8codeview8CVRecordINS0_12TypeLeafKindEE4kindEv.exit, label %7

7:                                                ; preds = %2
  %8 = getelementptr inbounds nuw i8, ptr %5, i64 2
  call void @llvm.assume(i1 true) [ "align"(ptr %8, i64 1) ]
  %.0.copyload.i.i.i.i = load i16, ptr %8, align 1
  br label %_ZNK4llvm8codeview8CVRecordINS0_12TypeLeafKindEE4kindEv.exit

_ZNK4llvm8codeview8CVRecordINS0_12TypeLeafKindEE4kindEv.exit: ; preds = %2, %7
  %.0.i = phi i16 [ %.0.copyload.i.i.i.i, %7 ], [ 0, %2 ]
  %9 = getelementptr inbounds i8, ptr %5, i64 4
  %10 = add i64 %4, -4
  tail call fastcc void @_ZL19discoverTypeIndicesN4llvm8ArrayRefIhEENS_8codeview12TypeLeafKindERNS_15SmallVectorImplINS2_11TiReferenceEEE(ptr nonnull %9, i64 %10, i16 noundef zeroext %.0.i, ptr noundef nonnull align 8 dereferenceable(16) %1)
  ret void
}